target datalayout = "e-m:e-p270:32:32-p271:32:32-p272:64:64-i64:64-i128:128-f80:128-n8:16:32:64-S128"
target triple = "x86_64-pc-linux-gnu"

%struct.malloc_mutex_s = type { %union.anon }
%union.anon = type { %struct.anon.1 }
%struct.anon.1 = type { %struct.mutex_prof_data_t, %struct.atomic_b_t, %union.pthread_mutex_t }
%struct.mutex_prof_data_t = type { %struct.nstime_t, %struct.nstime_t, i64, i64, i32, %struct.atomic_u32_t, i64, ptr, i64 }
%struct.nstime_t = type { i64 }
%struct.atomic_u32_t = type { i32 }
%struct.atomic_b_t = type { i8 }
%union.pthread_mutex_t = type { %struct.__pthread_mutex_s }
%struct.__pthread_mutex_s = type { i32, i32, i32, i32, i32, i16, i16, %struct.__pthread_internal_list }
%struct.__pthread_internal_list = type { ptr, ptr }
%struct.atomic_p_t = type { ptr }
%struct.arena_s = type { [2 x %struct.atomic_u_t], %struct.atomic_u_t, ptr, %struct.arena_stats_s, %struct.anon, %struct.anon.0, %struct.malloc_mutex_s, %struct.atomic_u_t, %struct.edata_list_active_t, %struct.malloc_mutex_s, %struct.pa_shard_s, i32, ptr, %struct.nstime_t, [32 x i8], [32 x i8], [0 x %struct.bin_with_batch_s] }
%struct.arena_stats_s = type { i64, i64, i64, i64, i64, i64, %struct.atomic_zu_t, i64, i64, i64, i64, i64, i64, %struct.pa_shard_stats_s, i64, i64, [12 x %struct.mutex_prof_data_t], [196 x %struct.arena_stats_large_s], %struct.nstime_t }
%struct.atomic_zu_t = type { i64 }
%struct.pa_shard_stats_s = type { i64, %struct.pac_stats_s }
%struct.pac_stats_s = type { %struct.pac_decay_stats_s, %struct.pac_decay_stats_s, i64, %struct.atomic_zu_t, %struct.atomic_zu_t }
%struct.pac_decay_stats_s = type { %struct.locked_u64_s, %struct.locked_u64_s, %struct.locked_u64_s }
%struct.locked_u64_s = type { %struct.atomic_u64_t }
%struct.atomic_u64_t = type { i64 }
%struct.arena_stats_large_s = type { %struct.locked_u64_s, %struct.locked_u64_s, %struct.locked_u64_s, %struct.locked_u64_s, %struct.locked_u64_s, i64 }
%struct.anon = type { ptr }
%struct.anon.0 = type { ptr }
%struct.atomic_u_t = type { i32 }
%struct.edata_list_active_t = type { %struct.anon.3 }
%struct.anon.3 = type { ptr }
%struct.pa_shard_s = type { ptr, %struct.atomic_zu_t, %struct.atomic_b_t, i8, %struct.pac_s, %struct.sec_s, %struct.hpa_shard_s, %struct.edata_cache_s, i32, ptr, ptr, ptr, ptr }
%struct.pac_s = type { %struct.pai_s, %struct.ecache_s, %struct.ecache_s, %struct.ecache_s, ptr, ptr, ptr, %struct.exp_grow_s, %struct.malloc_mutex_s, %struct.san_bump_alloc_s, %struct.atomic_zu_t, %struct.decay_s, %struct.decay_s, ptr, ptr, %struct.atomic_zu_t }
%struct.pai_s = type { ptr, ptr, ptr, ptr, ptr, ptr, ptr }
%struct.ecache_s = type { %struct.malloc_mutex_s, %struct.eset_s, %struct.eset_s, i32, i32, i8 }
%struct.eset_s = type { [4 x i64], [200 x %struct.eset_bin_s], [200 x %struct.eset_bin_stats_s], %struct.edata_list_inactive_t, %struct.atomic_zu_t, i32 }
%struct.eset_bin_s = type { %struct.edata_heap_t, %struct.edata_cmp_summary_s }
%struct.edata_heap_t = type { %struct.ph_s }
%struct.ph_s = type { ptr, i64 }
%struct.edata_cmp_summary_s = type { i64, i64 }
%struct.eset_bin_stats_s = type { %struct.atomic_zu_t, %struct.atomic_zu_t }
%struct.edata_list_inactive_t = type { %struct.anon.4 }
%struct.anon.4 = type { ptr }
%struct.exp_grow_s = type { i32, i32 }
%struct.san_bump_alloc_s = type { %struct.malloc_mutex_s, ptr }
%struct.decay_s = type { %struct.malloc_mutex_s, i8, %struct.atomic_zd_t, %struct.nstime_t, %struct.nstime_t, i64, %struct.nstime_t, i64, i64, [200 x i64], i64 }
%struct.atomic_zd_t = type { i64 }
%struct.sec_s = type { %struct.pai_s, ptr, %struct.sec_opts_s, ptr, i32 }
%struct.sec_opts_s = type { i64, i64, i64, i64, i64 }
%struct.hpa_shard_s = type { %struct.pai_s, ptr, %struct.malloc_mutex_s, %struct.malloc_mutex_s, ptr, %struct.edata_cache_fast_s, %struct.psset_s, i64, i32, ptr, %struct.hpa_shard_opts_s, i64, %struct.hpa_shard_nonderived_stats_s, %struct.nstime_t }
%struct.edata_cache_fast_s = type { %struct.edata_list_inactive_t, ptr, i8 }
%struct.psset_s = type { [64 x %struct.hpdata_age_heap_t], [1 x i64], %struct.psset_stats_s, %struct.hpdata_empty_list_t, [128 x %struct.hpdata_purge_list_t], [2 x i64], %struct.hpdata_hugify_list_t }
%struct.hpdata_age_heap_t = type { %struct.ph_s }
%struct.psset_stats_s = type { %struct.psset_bin_stats_s, [2 x %struct.psset_bin_stats_s], [64 x [2 x %struct.psset_bin_stats_s]], [2 x %struct.psset_bin_stats_s], [2 x %struct.psset_bin_stats_s] }
%struct.psset_bin_stats_s = type { i64, i64, i64 }
%struct.hpdata_empty_list_t = type { %struct.anon.5 }
%struct.anon.5 = type { ptr }
%struct.hpdata_purge_list_t = type { %struct.anon.6 }
%struct.anon.6 = type { ptr }
%struct.hpdata_hugify_list_t = type { %struct.anon.7 }
%struct.anon.7 = type { ptr }
%struct.hpa_shard_opts_s = type { i64, i64, i32, i8, i64, i8, i64, i64 }
%struct.hpa_shard_nonderived_stats_s = type { i64, i64, i64, i64, i64 }
%struct.edata_cache_s = type { %struct.edata_avail_t, %struct.atomic_zu_t, %struct.malloc_mutex_s, ptr }
%struct.edata_avail_t = type { %struct.ph_s }
%struct.bin_with_batch_s = type { %struct.bin_s, %struct.batcher_s, [16 x %struct.bin_remote_free_data_s] }
%struct.bin_s = type { %struct.malloc_mutex_s, %struct.bin_stats_s, ptr, %struct.edata_heap_t, %struct.edata_list_active_t }
%struct.bin_stats_s = type { i64, i64, i64, i64, i64, i64, i64, i64, i64, i64, i64, i64, i64, i64 }
%struct.batcher_s = type { %struct.atomic_zu_t, i64, i64, %struct.malloc_mutex_s }
%struct.bin_remote_free_data_s = type { ptr, ptr }
%struct.edata_s = type { i64, ptr, %union.anon.10, ptr, i64, %union.anon.11, %union.anon.14 }
%union.anon.10 = type { i64 }
%union.anon.11 = type { %union.anon.13 }
%union.anon.13 = type { %struct.edata_heap_link_t }
%struct.edata_heap_link_t = type { %struct.phn_link_s }
%struct.phn_link_s = type { ptr, ptr, ptr }
%union.anon.14 = type { %struct.slab_data_s }
%struct.slab_data_s = type { [8 x i64] }

@je_arenas = external global [0 x %struct.atomic_p_t], align 8

; Function Attrs: alwaysinline nounwind uwtable
define internal i32 @atomic_enum_to_builtin(i32 noundef %0) #2 {
  %2 = alloca i32, align 4
  %3 = alloca i32, align 4
  store i32 %0, ptr %3, align 4, !tbaa !21
  %4 = load i32, ptr %3, align 4, !tbaa !21
  switch i32 %4, label %10 [
    i32 0, label %5
    i32 1, label %6
    i32 2, label %7
    i32 3, label %8
    i32 4, label %9
  ]

5:                                                ; preds = %1
  store i32 0, ptr %2, align 4
  br label %12

6:                                                ; preds = %1
  store i32 2, ptr %2, align 4
  br label %12

7:                                                ; preds = %1
  store i32 3, ptr %2, align 4
  br label %12

8:                                                ; preds = %1
  store i32 4, ptr %2, align 4
  br label %12

9:                                                ; preds = %1
  store i32 5, ptr %2, align 4
  br label %12

10:                                               ; preds = %1
  br label %11

11:                                               ; preds = %10
  unreachable

12:                                               ; preds = %5, %6, %7, %8, %9
  %13 = load i32, ptr %2, align 4
  ret i32 %13
}

; Function Attrs: alwaysinline nounwind uwtable
define internal ptr @atomic_load_p(ptr noundef %0, i32 noundef %1) #2 {
  %3 = alloca ptr, align 8
  %4 = alloca i32, align 4
  %5 = alloca ptr, align 8
  store ptr %0, ptr %3, align 8, !tbaa !25
  store i32 %1, ptr %4, align 4, !tbaa !21
  call void @llvm.lifetime.start.p0(i64 8, ptr %5) #11
  %6 = load ptr, ptr %3, align 8, !tbaa !25
  %7 = getelementptr inbounds nuw %struct.atomic_p_t, ptr %6, i32 0, i32 0
  %8 = load i32, ptr %4, align 4, !tbaa !21
  %9 = call i32 @atomic_enum_to_builtin(i32 noundef %8)
  switch i32 %9, label %10 [
    i32 1, label %12
    i32 2, label %12
    i32 5, label %14
  ]

10:                                               ; preds = %2
  %11 = load atomic i64, ptr %7 monotonic, align 8
  store i64 %11, ptr %5, align 8
  br label %16

12:                                               ; preds = %2, %2
  %13 = load atomic i64, ptr %7 acquire, align 8
  store i64 %13, ptr %5, align 8
  br label %16

14:                                               ; preds = %2
  %15 = load atomic i64, ptr %7 seq_cst, align 8
  store i64 %15, ptr %5, align 8
  br label %16

16:                                               ; preds = %14, %12, %10
  %17 = load ptr, ptr %5, align 8, !tbaa !25
  call void @llvm.lifetime.end.p0(i64 8, ptr %5) #11
  ret ptr %17
}

; Function Attrs: inlinehint nounwind uwtable
define internal i32 @edata_arena_ind_get(ptr noundef %0) #5 {
  %2 = alloca ptr, align 8
  %3 = alloca i32, align 4
  store ptr %0, ptr %2, align 8, !tbaa !17
  call void @llvm.lifetime.start.p0(i64 4, ptr %3) #11
  %4 = load ptr, ptr %2, align 8, !tbaa !17
  %5 = getelementptr inbounds nuw %struct.edata_s, ptr %4, i32 0, i32 0
  %6 = load i64, ptr %5, align 8, !tbaa !125
  %7 = and i64 %6, 4095
  %8 = lshr i64 %7, 0
  %9 = trunc i64 %8 to i32
  store i32 %9, ptr %3, align 4, !tbaa !21
  br label %10

10:                                               ; preds = %1
  br label %11

11:                                               ; preds = %10
  br label %12

12:                                               ; preds = %11
  %13 = load i32, ptr %3, align 4, !tbaa !21
  call void @llvm.lifetime.end.p0(i64 4, ptr %3) #11
  ret i32 %13
}

; Function Attrs: nounwind uwtable
define internal void @large_dalloc_finish_impl(ptr noundef %0, ptr noundef %1, ptr noundef %2) #0 {
  %4 = alloca ptr, align 8
  %5 = alloca ptr, align 8
  %6 = alloca ptr, align 8
  %7 = alloca i8, align 1
  store ptr %0, ptr %4, align 8, !tbaa !4
  store ptr %1, ptr %5, align 8, !tbaa !9
  store ptr %2, ptr %6, align 8, !tbaa !17
  call void @llvm.lifetime.start.p0(i64 1, ptr %7) #11
  store i8 0, ptr %7, align 1, !tbaa !13
  %8 = load ptr, ptr %4, align 8, !tbaa !4
  %9 = load ptr, ptr %5, align 8, !tbaa !9
  %10 = getelementptr inbounds nuw %struct.arena_s, ptr %9, i32 0, i32 10
  %11 = load ptr, ptr %6, align 8, !tbaa !17
  call void @je_pa_dalloc(ptr noundef %8, ptr noundef %10, ptr noundef %11, ptr noundef %7)
  %12 = load i8, ptr %7, align 1, !tbaa !13, !range !15, !noundef !16
  %13 = trunc i8 %12 to i1
  br i1 %13, label %14, label %17

14:                                               ; preds = %3
  %15 = load ptr, ptr %4, align 8, !tbaa !4
  %16 = load ptr, ptr %5, align 8, !tbaa !9
  call void @je_arena_handle_deferred_work(ptr noundef %15, ptr noundef %16)
  br label %17

17:                                               ; preds = %14, %3
  call void @llvm.lifetime.end.p0(i64 1, ptr %7) #11
  ret void
}

; Function Attrs: inlinehint nounwind uwtable
define internal ptr @arena_get_from_edata(ptr noundef %0) #5 {
  %2 = alloca ptr, align 8
  store ptr %0, ptr %2, align 8, !tbaa !17
  %3 = load ptr, ptr %2, align 8, !tbaa !17
  %4 = call i32 @edata_arena_ind_get(ptr noundef %3)
  %5 = zext i32 %4 to i64
  %6 = getelementptr inbounds nuw [0 x %struct.atomic_p_t], ptr @je_arenas, i64 0, i64 %5
  %7 = call ptr @atomic_load_p(ptr noundef %6, i32 noundef 0)
  ret ptr %7
}

; Function Attrs: nounwind uwtable
define hidden void @je_large_dalloc_finish(ptr noundef %0, ptr noundef %1) #0 {
  %3 = alloca ptr, align 8
  %4 = alloca ptr, align 8
  store ptr %0, ptr %3, align 8, !tbaa !4
  store ptr %1, ptr %4, align 8, !tbaa !17
  %5 = load ptr, ptr %3, align 8, !tbaa !4
  %6 = load ptr, ptr %4, align 8, !tbaa !17
  %7 = call ptr @arena_get_from_edata(ptr noundef %6)
  %8 = load ptr, ptr %4, align 8, !tbaa !17
  call void @large_dalloc_finish_impl(ptr noundef %5, ptr noundef %7, ptr noundef %8)
  ret void
}